; Function Attrs: nounwind uwtable
define internal fastcc void @releaseMonitor(ptr noundef readonly captures(address) %0) unnamed_addr #0 {
  %2 = getelementptr inbounds nuw i8, ptr %0, i64 80
  %3 = load ptr, ptr %2, align 8, !tbaa !213
  %4 = getelementptr inbounds nuw i8, ptr %3, i64 144
  %5 = load ptr, ptr %4, align 8, !tbaa !285
  %.not = icmp eq ptr %5, %0
  br i1 %.not, label %6, label %19

6:                                                ; preds = %1
  tail call void @_glfwInputMonitorWindow(ptr noundef nonnull %3, ptr noundef null) #17
  %7 = load ptr, ptr %2, align 8, !tbaa !213
  tail call void @_glfwRestoreVideoModeX11(ptr noundef %7) #17
  %8 = load i32, ptr getelementptr inbounds nuw (i8, ptr @_glfw, i64 142344), align 8, !tbaa !282
  %9 = add nsw i32 %8, -1
  store i32 %9, ptr getelementptr inbounds nuw (i8, ptr @_glfw, i64 142344), align 8, !tbaa !282
  %10 = icmp eq i32 %9, 0
  br i1 %10, label %11, label %19

11:                                               ; preds = %6
  %12 = load ptr, ptr getelementptr inbounds nuw (i8, ptr @_glfw, i64 141896), align 8, !tbaa !284
  %13 = load ptr, ptr getelementptr inbounds nuw (i8, ptr @_glfw, i64 137840), align 8, !tbaa !93
  %14 = load i32, ptr getelementptr inbounds nuw (i8, ptr @_glfw, i64 142348), align 4, !tbaa !290
  %15 = load i32, ptr getelementptr inbounds nuw (i8, ptr @_glfw, i64 142352), align 8, !tbaa !291
  %16 = load i32, ptr getelementptr inbounds nuw (i8, ptr @_glfw, i64 142356), align 4, !tbaa !292
  %17 = load i32, ptr getelementptr inbounds nuw (i8, ptr @_glfw, i64 142360), align 8, !tbaa !293
  %18 = tail call i32 %12(ptr noundef %13, i32 noundef %14, i32 noundef %15, i32 noundef %16, i32 noundef %17) #17
  br label %19

19:                                               ; preds = %1, %11, %6
  ret void
}